target datalayout = "e-m:e-p270:32:32-p271:32:32-p272:64:64-i64:64-i128:128-f80:128-n8:16:32:64-S128"
target triple = "x86_64-pc-linux-gnu"

%struct.AVRational = type { i32, i32 }
%struct.AVPacket = type { ptr, i64, i64, ptr, i32, i32, i32, ptr, i32, i64, i64, ptr, ptr, %struct.AVRational }
%struct.WvHeader = type { i32, i16, i32, i32, i32, i32, i32, i32, i32 }

; Function Attrs: nounwind uwtable
define internal i32 @mkv_reformat_wavpack(ptr noundef %0, ptr noundef %1, ptr noundef %2, ptr noundef %3) #0 {
  %5 = alloca i32, align 4
  %6 = alloca ptr, align 8
  %7 = alloca ptr, align 8
  %8 = alloca ptr, align 8
  %9 = alloca ptr, align 8
  %10 = alloca ptr, align 8
  %11 = alloca i32, align 4
  %12 = alloca i32, align 4
  %13 = alloca i32, align 4
  %14 = alloca %struct.WvHeader, align 4
  %15 = alloca i32, align 4
  store ptr %0, ptr %6, align 8, !tbaa !26
  store ptr %1, ptr %7, align 8, !tbaa !29
  store ptr %2, ptr %8, align 8, !tbaa !76
  store ptr %3, ptr %9, align 8, !tbaa !265
  call void @llvm.lifetime.start.p0(i64 8, ptr %10) #16
  %16 = load ptr, ptr %8, align 8, !tbaa !76
  %17 = getelementptr inbounds nuw %struct.AVPacket, ptr %16, i32 0, i32 3
  %18 = load ptr, ptr %17, align 8, !tbaa !132
  store ptr %18, ptr %10, align 8, !tbaa !134
  call void @llvm.lifetime.start.p0(i64 4, ptr %11) #16
  %19 = load ptr, ptr %8, align 8, !tbaa !76
  %20 = getelementptr inbounds nuw %struct.AVPacket, ptr %19, i32 0, i32 4
  %21 = load i32, ptr %20, align 8, !tbaa !78
  store i32 %21, ptr %11, align 4, !tbaa !30
  call void @llvm.lifetime.start.p0(i64 4, ptr %12) #16
  store i32 0, ptr %12, align 4, !tbaa !30
  call void @llvm.lifetime.start.p0(i64 4, ptr %13) #16
  br label %22

22:                                               ; preds = %115, %4
  %23 = load i32, ptr %11, align 4, !tbaa !30
  %24 = icmp sge i32 %23, 32
  br i1 %24, label %25, label %116

25:                                               ; preds = %22
  call void @llvm.lifetime.start.p0(i64 36, ptr %14) #16
  %26 = load ptr, ptr %10, align 8, !tbaa !134
  %27 = call i32 @ff_wv_parse_header(ptr noundef %14, ptr noundef %26)
  store i32 %27, ptr %13, align 4, !tbaa !30
  %28 = load i32, ptr %13, align 4, !tbaa !30
  %29 = icmp slt i32 %28, 0
  br i1 %29, label %30, label %32

30:                                               ; preds = %25
  %31 = load i32, ptr %13, align 4, !tbaa !30
  store i32 %31, ptr %5, align 4
  store i32 1, ptr %15, align 4
  br label %113

32:                                               ; preds = %25
  %33 = load ptr, ptr %10, align 8, !tbaa !134
  %34 = getelementptr inbounds i8, ptr %33, i64 32
  store ptr %34, ptr %10, align 8, !tbaa !134
  %35 = load i32, ptr %11, align 4, !tbaa !30
  %36 = sub nsw i32 %35, 32
  store i32 %36, ptr %11, align 4, !tbaa !30
  %37 = load i32, ptr %11, align 4, !tbaa !30
  %38 = getelementptr inbounds nuw %struct.WvHeader, ptr %14, i32 0, i32 0
  %39 = load i32, ptr %38, align 4, !tbaa !362
  %40 = icmp ult i32 %37, %39
  br i1 %40, label %41, label %42

41:                                               ; preds = %32
  store i32 -1094995529, ptr %5, align 4
  store i32 1, ptr %15, align 4
  br label %113

42:                                               ; preds = %32
  %43 = getelementptr inbounds nuw %struct.WvHeader, ptr %14, i32 0, i32 7
  %44 = load i32, ptr %43, align 4, !tbaa !364
  %45 = icmp ne i32 %44, 0
  %46 = xor i1 %45, true
  %47 = xor i1 %46, true
  %48 = zext i1 %47 to i32
  %49 = mul nsw i32 4, %48
  %50 = add nsw i32 %49, 8
  %51 = getelementptr inbounds nuw %struct.WvHeader, ptr %14, i32 0, i32 7
  %52 = load i32, ptr %51, align 4, !tbaa !364
  %53 = icmp ne i32 %52, 0
  br i1 %53, label %54, label %58

54:                                               ; preds = %42
  %55 = getelementptr inbounds nuw %struct.WvHeader, ptr %14, i32 0, i32 8
  %56 = load i32, ptr %55, align 4, !tbaa !365
  %57 = icmp ne i32 %56, 0
  br label %58

58:                                               ; preds = %54, %42
  %59 = phi i1 [ false, %42 ], [ %57, %54 ]
  %60 = xor i1 %59, true
  %61 = zext i1 %60 to i32
  %62 = mul nsw i32 4, %61
  %63 = add nsw i32 %50, %62
  %64 = load i32, ptr %12, align 4, !tbaa !30
  %65 = add nsw i32 %64, %63
  store i32 %65, ptr %12, align 4, !tbaa !30
  %66 = load ptr, ptr %7, align 8, !tbaa !29
  %67 = icmp ne ptr %66, null
  br i1 %67, label %68, label %99

68:                                               ; preds = %58
  %69 = getelementptr inbounds nuw %struct.WvHeader, ptr %14, i32 0, i32 7
  %70 = load i32, ptr %69, align 4, !tbaa !364
  %71 = icmp ne i32 %70, 0
  br i1 %71, label %72, label %76

72:                                               ; preds = %68
  %73 = load ptr, ptr %7, align 8, !tbaa !29
  %74 = getelementptr inbounds nuw %struct.WvHeader, ptr %14, i32 0, i32 4
  %75 = load i32, ptr %74, align 4, !tbaa !366
  call void @avio_wl32(ptr noundef %73, i32 noundef %75)
  br label %76

76:                                               ; preds = %72, %68
  %77 = load ptr, ptr %7, align 8, !tbaa !29
  %78 = getelementptr inbounds nuw %struct.WvHeader, ptr %14, i32 0, i32 5
  %79 = load i32, ptr %78, align 4, !tbaa !367
  call void @avio_wl32(ptr noundef %77, i32 noundef %79)
  %80 = load ptr, ptr %7, align 8, !tbaa !29
  %81 = getelementptr inbounds nuw %struct.WvHeader, ptr %14, i32 0, i32 6
  %82 = load i32, ptr %81, align 4, !tbaa !368
  call void @avio_wl32(ptr noundef %80, i32 noundef %82)
  %83 = getelementptr inbounds nuw %struct.WvHeader, ptr %14, i32 0, i32 7
  %84 = load i32, ptr %83, align 4, !tbaa !364
  %85 = icmp ne i32 %84, 0
  br i1 %85, label %86, label %90

86:                                               ; preds = %76
  %87 = getelementptr inbounds nuw %struct.WvHeader, ptr %14, i32 0, i32 8
  %88 = load i32, ptr %87, align 4, !tbaa !365
  %89 = icmp ne i32 %88, 0
  br i1 %89, label %94, label %90

90:                                               ; preds = %86, %76
  %91 = load ptr, ptr %7, align 8, !tbaa !29
  %92 = getelementptr inbounds nuw %struct.WvHeader, ptr %14, i32 0, i32 0
  %93 = load i32, ptr %92, align 4, !tbaa !362
  call void @avio_wl32(ptr noundef %91, i32 noundef %93)
  br label %94

94:                                               ; preds = %90, %86
  %95 = load ptr, ptr %7, align 8, !tbaa !29
  %96 = load ptr, ptr %10, align 8, !tbaa !134
  %97 = getelementptr inbounds nuw %struct.WvHeader, ptr %14, i32 0, i32 0
  %98 = load i32, ptr %97, align 4, !tbaa !362
  call void @avio_write(ptr noundef %95, ptr noundef %96, i32 noundef %98)
  br label %99

99:                                               ; preds = %94, %58
  %100 = getelementptr inbounds nuw %struct.WvHeader, ptr %14, i32 0, i32 0
  %101 = load i32, ptr %100, align 4, !tbaa !362
  %102 = load ptr, ptr %10, align 8, !tbaa !134
  %103 = zext i32 %101 to i64
  %104 = getelementptr inbounds nuw i8, ptr %102, i64 %103
  store ptr %104, ptr %10, align 8, !tbaa !134
  %105 = getelementptr inbounds nuw %struct.WvHeader, ptr %14, i32 0, i32 0
  %106 = load i32, ptr %105, align 4, !tbaa !362
  %107 = load i32, ptr %11, align 4, !tbaa !30
  %108 = sub i32 %107, %106
  store i32 %108, ptr %11, align 4, !tbaa !30
  %109 = getelementptr inbounds nuw %struct.WvHeader, ptr %14, i32 0, i32 0
  %110 = load i32, ptr %109, align 4, !tbaa !362
  %111 = load i32, ptr %12, align 4, !tbaa !30
  %112 = add i32 %111, %110
  store i32 %112, ptr %12, align 4, !tbaa !30
  store i32 0, ptr %15, align 4
  br label %113

113:                                              ; preds = %99, %41, %30
  call void @llvm.lifetime.end.p0(i64 36, ptr %14) #16
  %114 = load i32, ptr %15, align 4
  switch i32 %114, label %119 [
    i32 0, label %115
  ]

115:                                              ; preds = %113
  br label %22, !llvm.loop !369

116:                                              ; preds = %22
  %117 = load i32, ptr %12, align 4, !tbaa !30
  %118 = load ptr, ptr %9, align 8, !tbaa !265
  store i32 %117, ptr %118, align 4, !tbaa !30
  store i32 0, ptr %5, align 4
  store i32 1, ptr %15, align 4
  br label %119

119:                                              ; preds = %116, %113
  call void @llvm.lifetime.end.p0(i64 4, ptr %13) #16
  call void @llvm.lifetime.end.p0(i64 4, ptr %12) #16
  call void @llvm.lifetime.end.p0(i64 4, ptr %11) #16
  call void @llvm.lifetime.end.p0(i64 8, ptr %10) #16
  %120 = load i32, ptr %5, align 4
  ret i32 %120
}