; Function Attrs: nounwind uwtable
define internal range(i32 -2147483648, 1) i32 @mkv_reformat_wavpack(ptr readnone captures(none) %0, ptr noundef %1, ptr noundef readonly captures(none) %2, ptr noundef writeonly captures(none) %3) #0 {
  %5 = alloca %struct.WvHeader, align 4
  %6 = getelementptr inbounds nuw i8, ptr %2, i64 32
  %7 = load i32, ptr %6, align 8, !tbaa !212
  %8 = icmp sgt i32 %7, 31
  br i1 %8, label %.lr.ph, label %._crit_edge

.lr.ph:                                           ; preds = %4
  %9 = getelementptr inbounds nuw i8, ptr %2, i64 24
  %10 = load ptr, ptr %9, align 8, !tbaa !248
  %11 = getelementptr inbounds nuw i8, ptr %5, i64 28
  %12 = getelementptr inbounds nuw i8, ptr %5, i64 32
  %.not = icmp eq ptr %1, null
  %13 = getelementptr inbounds nuw i8, ptr %5, i64 16
  %14 = getelementptr inbounds nuw i8, ptr %5, i64 20
  %15 = getelementptr inbounds nuw i8, ptr %5, i64 24
  br i1 %.not, label %.lr.ph.split.us, label %.lr.ph.split

.lr.ph.split.us:                                  ; preds = %.lr.ph, %22
  %.02646.us = phi i32 [ %35, %22 ], [ 0, %.lr.ph ]
  %.02845.us = phi i32 [ %32, %22 ], [ %7, %.lr.ph ]
  %.03044.us = phi ptr [ %31, %22 ], [ %10, %.lr.ph ]
  call void @llvm.lifetime.start.p0(i64 36, ptr nonnull %5) #14
  %16 = call i32 @ff_wv_parse_header(ptr noundef nonnull %5, ptr noundef %.03044.us) #14
  %17 = icmp slt i32 %16, 0
  br i1 %17, label %.thread, label %18

18:                                               ; preds = %.lr.ph.split.us
  %19 = add nsw i32 %.02845.us, -32
  %20 = load i32, ptr %5, align 4, !tbaa !300
  %21 = icmp ult i32 %19, %20
  br i1 %21, label %.thread, label %22

22:                                               ; preds = %18
  %23 = getelementptr inbounds nuw i8, ptr %.03044.us, i64 32
  %24 = load i32, ptr %11, align 4, !tbaa !302
  %25 = icmp eq i32 %24, 0
  %26 = select i1 %25, i32 8, i32 12
  %27 = load i32, ptr %12, align 4
  %28 = icmp eq i32 %27, 0
  %.not37.us = select i1 %25, i1 true, i1 %28
  %29 = select i1 %.not37.us, i32 4, i32 0
  %30 = zext nneg i32 %20 to i64
  %31 = getelementptr inbounds nuw i8, ptr %23, i64 %30
  %32 = sub nuw i32 %19, %20
  %33 = add i32 %26, %.02646.us
  %34 = add i32 %33, %29
  %35 = add i32 %34, %20
  call void @llvm.lifetime.end.p0(i64 36, ptr nonnull %5) #14
  %36 = icmp sgt i32 %32, 31
  br i1 %36, label %.lr.ph.split.us, label %._crit_edge, !llvm.loop !303

.lr.ph.split:                                     ; preds = %.lr.ph, %62
  %.02646 = phi i32 [ %70, %62 ], [ 0, %.lr.ph ]
  %.02845 = phi i32 [ %67, %62 ], [ %7, %.lr.ph ]
  %.03044 = phi ptr [ %66, %62 ], [ %10, %.lr.ph ]
  call void @llvm.lifetime.start.p0(i64 36, ptr nonnull %5) #14
  %37 = call i32 @ff_wv_parse_header(ptr noundef nonnull %5, ptr noundef %.03044) #14
  %38 = icmp slt i32 %37, 0
  br i1 %38, label %.thread, label %39

39:                                               ; preds = %.lr.ph.split
  %40 = getelementptr inbounds nuw i8, ptr %.03044, i64 32
  %41 = add nsw i32 %.02845, -32
  %42 = load i32, ptr %5, align 4, !tbaa !300
  %43 = icmp ult i32 %41, %42
  br i1 %43, label %.thread, label %44

44:                                               ; preds = %39
  %45 = load i32, ptr %11, align 4, !tbaa !302
  %46 = icmp eq i32 %45, 0
  %47 = select i1 %46, i32 8, i32 12
  %48 = load i32, ptr %12, align 4
  %49 = icmp eq i32 %48, 0
  %.not37 = select i1 %46, i1 true, i1 %49
  %50 = select i1 %.not37, i32 4, i32 0
  br i1 %46, label %53, label %51

51:                                               ; preds = %44
  %52 = load i32, ptr %13, align 4, !tbaa !304
  call void @avio_wl32(ptr noundef nonnull %1, i32 noundef %52) #14
  br label %53

53:                                               ; preds = %51, %44
  %54 = load i32, ptr %14, align 4, !tbaa !305
  call void @avio_wl32(ptr noundef nonnull %1, i32 noundef %54) #14
  %55 = load i32, ptr %15, align 4, !tbaa !306
  call void @avio_wl32(ptr noundef nonnull %1, i32 noundef %55) #14
  %56 = load i32, ptr %11, align 4, !tbaa !302
  %57 = icmp ne i32 %56, 0
  %58 = load i32, ptr %12, align 4
  %59 = icmp ne i32 %58, 0
  %or.cond = select i1 %57, i1 %59, i1 false
  br i1 %or.cond, label %62, label %60

60:                                               ; preds = %53
  %61 = load i32, ptr %5, align 4, !tbaa !300
  call void @avio_wl32(ptr noundef nonnull %1, i32 noundef %61) #14
  br label %62

62:                                               ; preds = %53, %60
  %63 = load i32, ptr %5, align 4, !tbaa !300
  call void @avio_write(ptr noundef nonnull %1, ptr noundef nonnull %40, i32 noundef %63) #14
  %64 = load i32, ptr %5, align 4, !tbaa !300
  %65 = zext i32 %64 to i64
  %66 = getelementptr inbounds nuw i8, ptr %40, i64 %65
  %67 = sub i32 %41, %64
  %68 = add i32 %47, %.02646
  %69 = add i32 %68, %50
  %70 = add i32 %69, %64
  call void @llvm.lifetime.end.p0(i64 36, ptr nonnull %5) #14
  %71 = icmp sgt i32 %67, 31
  br i1 %71, label %.lr.ph.split, label %._crit_edge, !llvm.loop !303

.thread:                                          ; preds = %39, %.lr.ph.split, %.lr.ph.split.us, %18
  %.us-phi = phi i32 [ -1094995529, %18 ], [ %16, %.lr.ph.split.us ], [ -1094995529, %39 ], [ %37, %.lr.ph.split ]
  call void @llvm.lifetime.end.p0(i64 36, ptr nonnull %5) #14
  br label %72

._crit_edge:                                      ; preds = %62, %22, %4
  %.026.lcssa = phi i32 [ 0, %4 ], [ %35, %22 ], [ %70, %62 ]
  store i32 %.026.lcssa, ptr %3, align 4, !tbaa !139
  br label %72

72:                                               ; preds = %.thread, %._crit_edge
  %.2 = phi i32 [ 0, %._crit_edge ], [ %.us-phi, %.thread ]
  ret i32 %.2
}